(dp0
Vengine
p1
S'pdflatex'
p2
sVpackages
p3
c__builtin__
set
p4
((lp5
Vtitlesec
p6
atp7
Rp8
sVfiles_with_guttermarks
p9
g4
((lp10
V/Users/fiedl/Documents/wingolf.org/Berichte AK Internet/Aktueller Bericht (In Arbeit)/latex/lib/./sections.tex
p11
aS'sections.tex'
p12
atp13
Rp14
sVsynctex
p15
I01
s.