(dp0
Vengine
p1
S'pdflatex'
p2
sVpackages
p3
c__builtin__
set
p4
((lp5
Vmultirow
p6
aVtabularx
p7
atp8
Rp9
sVfiles_with_guttermarks
p10
g4
((lp11
S'tabular.tex'
p12
aV/Users/fiedl/Documents/wingolf.org/Berichte AK Internet/Aktueller Bericht (In Arbeit)/latex/lib/./tabular.tex
p13
atp14
Rp15
sVsynctex
p16
I01
s.